; Function Attrs: mustprogress uwtable
define noundef signext i8 @_ZNK6icu_7516CollationBuilder5isFCDERKNS_13UnicodeStringER10UErrorCode(ptr nocapture noundef nonnull readonly align 8 dereferenceable(616) %this, ptr noundef nonnull align 8 dereferenceable(64) %s, ptr noundef nonnull align 4 dereferenceable(4) %errorCode) local_unnamed_addr #0 align 2 {
entry:
  %0 = load i32, ptr %errorCode, align 4
  %cmp.i = icmp sgt i32 %0, 0
  br i1 %cmp.i, label %land.end, label %land.rhs

land.rhs:                                         ; preds = %entry
  %fcd = getelementptr inbounds i8, ptr %this, i64 16
  %1 = load ptr, ptr %fcd, align 8
  %vtable = load ptr, ptr %1, align 8
  %vfn = getelementptr inbounds i8, ptr %vtable, i64 88
  %2 = load ptr, ptr %vfn, align 8
  %call2 = tail call noundef signext i8 %2(ptr noundef nonnull align 8 dereferenceable(8) %1, ptr noundef nonnull align 8 dereferenceable(64) %s, ptr noundef nonnull align 4 dereferenceable(4) %errorCode)
  %tobool3 = icmp ne i8 %call2, 0
  %3 = zext i1 %tobool3 to i8
  br label %land.end

land.end:                                         ; preds = %land.rhs, %entry
  %conv = phi i8 [ 0, %entry ], [ %3, %land.rhs ]
  ret i8 %conv
}